target datalayout = "e-m:e-p270:32:32-p271:32:32-p272:64:64-i64:64-i128:128-f80:128-n8:16:32:64-S128"
target triple = "x86_64-pc-linux-gnu"

%struct.AVPixFmtDescriptor = type { ptr, i8, i8, i8, i64, [4 x %struct.AVComponentDescriptor], ptr }
%struct.AVComponentDescriptor = type { i32, i32, i32, i32, i32 }

; Function Attrs: nounwind uwtable
define internal i32 @is_planar_yuv(ptr noundef %0) #0 {
  %2 = alloca i32, align 4
  %3 = alloca ptr, align 8
  %4 = alloca i32, align 4
  %5 = alloca i32, align 4
  store ptr %0, ptr %3, align 8, !tbaa !16
  call void @llvm.lifetime.start.p0(i64 4, ptr %4) #3
  %6 = load ptr, ptr %3, align 8, !tbaa !16
  %7 = getelementptr inbounds nuw %struct.AVPixFmtDescriptor, ptr %6, i32 0, i32 4
  %8 = load i64, ptr %7, align 8, !tbaa !44
  %9 = and i64 %8, -146
  %10 = icmp ne i64 %9, 0
  br i1 %10, label %29, label %11

11:                                               ; preds = %1
  %12 = load ptr, ptr %3, align 8, !tbaa !16
  %13 = getelementptr inbounds nuw %struct.AVPixFmtDescriptor, ptr %12, i32 0, i32 1
  %14 = load i8, ptr %13, align 8, !tbaa !47
  %15 = zext i8 %14 to i32
  %16 = icmp slt i32 %15, 3
  br i1 %16, label %29, label %17

17:                                               ; preds = %11
  %18 = load ptr, ptr %3, align 8, !tbaa !16
  %19 = getelementptr inbounds nuw %struct.AVPixFmtDescriptor, ptr %18, i32 0, i32 5
  %20 = getelementptr inbounds [4 x %struct.AVComponentDescriptor], ptr %19, i64 0, i64 1
  %21 = getelementptr inbounds nuw %struct.AVComponentDescriptor, ptr %20, i32 0, i32 4
  %22 = load i32, ptr %21, align 4, !tbaa !48
  %23 = load ptr, ptr %3, align 8, !tbaa !16
  %24 = getelementptr inbounds nuw %struct.AVPixFmtDescriptor, ptr %23, i32 0, i32 5
  %25 = getelementptr inbounds [4 x %struct.AVComponentDescriptor], ptr %24, i64 0, i64 2
  %26 = getelementptr inbounds nuw %struct.AVComponentDescriptor, ptr %25, i32 0, i32 4
  %27 = load i32, ptr %26, align 8, !tbaa !48
  %28 = icmp ne i32 %22, %27
  br i1 %28, label %29, label %30

29:                                               ; preds = %17, %11, %1
  store i32 0, ptr %2, align 4
  store i32 1, ptr %5, align 4
  br label %72

30:                                               ; preds = %17
  store i32 0, ptr %4, align 4, !tbaa !14
  br label %31

31:                                               ; preds = %68, %30
  %32 = load i32, ptr %4, align 4, !tbaa !14
  %33 = load ptr, ptr %3, align 8, !tbaa !16
  %34 = getelementptr inbounds nuw %struct.AVPixFmtDescriptor, ptr %33, i32 0, i32 1
  %35 = load i8, ptr %34, align 8, !tbaa !47
  %36 = zext i8 %35 to i32
  %37 = icmp slt i32 %32, %36
  br i1 %37, label %38, label %71

38:                                               ; preds = %31
  %39 = load ptr, ptr %3, align 8, !tbaa !16
  %40 = getelementptr inbounds nuw %struct.AVPixFmtDescriptor, ptr %39, i32 0, i32 5
  %41 = load i32, ptr %4, align 4, !tbaa !14
  %42 = sext i32 %41 to i64
  %43 = getelementptr inbounds [4 x %struct.AVComponentDescriptor], ptr %40, i64 0, i64 %42
  %44 = getelementptr inbounds nuw %struct.AVComponentDescriptor, ptr %43, i32 0, i32 2
  %45 = load i32, ptr %44, align 4, !tbaa !50
  %46 = icmp ne i32 %45, 0
  br i1 %46, label %66, label %47

47:                                               ; preds = %38
  %48 = load ptr, ptr %3, align 8, !tbaa !16
  %49 = getelementptr inbounds nuw %struct.AVPixFmtDescriptor, ptr %48, i32 0, i32 5
  %50 = load i32, ptr %4, align 4, !tbaa !14
  %51 = sext i32 %50 to i64
  %52 = getelementptr inbounds [4 x %struct.AVComponentDescriptor], ptr %49, i64 0, i64 %51
  %53 = getelementptr inbounds nuw %struct.AVComponentDescriptor, ptr %52, i32 0, i32 3
  %54 = load i32, ptr %53, align 4, !tbaa !51
  %55 = icmp ne i32 %54, 0
  br i1 %55, label %66, label %56

56:                                               ; preds = %47
  %57 = load ptr, ptr %3, align 8, !tbaa !16
  %58 = getelementptr inbounds nuw %struct.AVPixFmtDescriptor, ptr %57, i32 0, i32 5
  %59 = load i32, ptr %4, align 4, !tbaa !14
  %60 = sext i32 %59 to i64
  %61 = getelementptr inbounds [4 x %struct.AVComponentDescriptor], ptr %58, i64 0, i64 %60
  %62 = getelementptr inbounds nuw %struct.AVComponentDescriptor, ptr %61, i32 0, i32 0
  %63 = load i32, ptr %62, align 4, !tbaa !52
  %64 = load i32, ptr %4, align 4, !tbaa !14
  %65 = icmp ne i32 %63, %64
  br i1 %65, label %66, label %67

66:                                               ; preds = %56, %47, %38
  store i32 0, ptr %2, align 4
  store i32 1, ptr %5, align 4
  br label %72

67:                                               ; preds = %56
  br label %68

68:                                               ; preds = %67
  %69 = load i32, ptr %4, align 4, !tbaa !14
  %70 = add nsw i32 %69, 1
  store i32 %70, ptr %4, align 4, !tbaa !14
  br label %31, !llvm.loop !53

71:                                               ; preds = %31
  store i32 1, ptr %2, align 4
  store i32 1, ptr %5, align 4
  br label %72

72:                                               ; preds = %71, %66, %29
  call void @llvm.lifetime.end.p0(i64 4, ptr %4) #3
  %73 = load i32, ptr %2, align 4
  ret i32 %73
}

; Function Attrs: nounwind uwtable
define internal i32 @query_formats(ptr noundef %0, ptr noundef %1, ptr noundef %2) #0 {
  %4 = alloca i32, align 4
  %5 = alloca ptr, align 8
  %6 = alloca ptr, align 8
  %7 = alloca ptr, align 8
  %8 = alloca ptr, align 8
  %9 = alloca i32, align 4
  %10 = alloca i32, align 4
  %11 = alloca ptr, align 8
  %12 = alloca i32, align 4
  store ptr %0, ptr %5, align 8, !tbaa !4
  store ptr %1, ptr %6, align 8, !tbaa !9
  store ptr %2, ptr %7, align 8, !tbaa !9
  call void @llvm.lifetime.start.p0(i64 8, ptr %8) #3
  store ptr null, ptr %8, align 8, !tbaa !12
  call void @llvm.lifetime.start.p0(i64 4, ptr %9) #3
  call void @llvm.lifetime.start.p0(i64 4, ptr %10) #3
  store i32 0, ptr %9, align 4, !tbaa !14
  br label %13

13:                                               ; preds = %34, %3
  %14 = load i32, ptr %9, align 4, !tbaa !14
  %15 = call ptr @av_pix_fmt_desc_get(i32 noundef %14)
  %16 = icmp ne ptr %15, null
  br i1 %16, label %17, label %37

17:                                               ; preds = %13
  call void @llvm.lifetime.start.p0(i64 8, ptr %11) #3
  %18 = load i32, ptr %9, align 4, !tbaa !14
  %19 = call ptr @av_pix_fmt_desc_get(i32 noundef %18)
  store ptr %19, ptr %11, align 8, !tbaa !16
  %20 = load ptr, ptr %11, align 8, !tbaa !16
  %21 = call i32 @is_planar_yuv(ptr noundef %20)
  %22 = icmp ne i32 %21, 0
  br i1 %22, label %23, label %30

23:                                               ; preds = %17
  %24 = load i32, ptr %9, align 4, !tbaa !14
  %25 = sext i32 %24 to i64
  %26 = call i32 @ff_add_format(ptr noundef %8, i64 noundef %25)
  store i32 %26, ptr %10, align 4, !tbaa !14
  %27 = icmp slt i32 %26, 0
  br i1 %27, label %28, label %30

28:                                               ; preds = %23
  %29 = load i32, ptr %10, align 4, !tbaa !14
  store i32 %29, ptr %4, align 4
  store i32 1, ptr %12, align 4
  br label %31

30:                                               ; preds = %23, %17
  store i32 0, ptr %12, align 4
  br label %31

31:                                               ; preds = %30, %28
  call void @llvm.lifetime.end.p0(i64 8, ptr %11) #3
  %32 = load i32, ptr %12, align 4
  switch i32 %32, label %43 [
    i32 0, label %33
  ]

33:                                               ; preds = %31
  br label %34

34:                                               ; preds = %33
  %35 = load i32, ptr %9, align 4, !tbaa !14
  %36 = add nsw i32 %35, 1
  store i32 %36, ptr %9, align 4, !tbaa !14
  br label %13, !llvm.loop !18

37:                                               ; preds = %13
  %38 = load ptr, ptr %5, align 8, !tbaa !4
  %39 = load ptr, ptr %6, align 8, !tbaa !9
  %40 = load ptr, ptr %7, align 8, !tbaa !9
  %41 = load ptr, ptr %8, align 8, !tbaa !12
  %42 = call i32 @ff_set_common_formats2(ptr noundef %38, ptr noundef %39, ptr noundef %40, ptr noundef %41)
  store i32 %42, ptr %4, align 4
  store i32 1, ptr %12, align 4
  br label %43

43:                                               ; preds = %37, %31
  call void @llvm.lifetime.end.p0(i64 4, ptr %10) #3
  call void @llvm.lifetime.end.p0(i64 4, ptr %9) #3
  call void @llvm.lifetime.end.p0(i64 8, ptr %8) #3
  %44 = load i32, ptr %4, align 4
  ret i32 %44
}