; Function Attrs: nounwind uwtable
define internal i32 @query_formats(ptr noundef %0, ptr noundef %1, ptr noundef %2) #0 {
  %4 = alloca ptr, align 8
  call void @llvm.lifetime.start.p0(i64 8, ptr nonnull %4) #3
  store ptr null, ptr %4, align 8, !tbaa !4
  %5 = tail call ptr @av_pix_fmt_desc_get(i32 noundef 0) #3
  %.not19 = icmp eq ptr %5, null
  br i1 %.not19, label %._crit_edge, label %.lr.ph

.lr.ph:                                           ; preds = %3, %is_planar_yuv.exit.thread
  %indvars.iv = phi i64 [ %indvars.iv.next, %is_planar_yuv.exit.thread ], [ 0, %3 ]
  %6 = trunc nuw nsw i64 %indvars.iv to i32
  %7 = call ptr @av_pix_fmt_desc_get(i32 noundef %6) #3
  %8 = getelementptr inbounds nuw i8, ptr %7, i64 16
  %9 = load i64, ptr %8, align 8, !tbaa !9
  %10 = and i64 %9, -146
  %.not.i = icmp eq i64 %10, 0
  br i1 %.not.i, label %11, label %is_planar_yuv.exit.thread

11:                                               ; preds = %.lr.ph
  %12 = getelementptr inbounds nuw i8, ptr %7, i64 8
  %13 = load i8, ptr %12, align 8, !tbaa !13
  %14 = icmp ult i8 %13, 3
  br i1 %14, label %is_planar_yuv.exit.thread, label %15

15:                                               ; preds = %11
  %16 = getelementptr inbounds nuw i8, ptr %7, i64 24
  %17 = getelementptr inbounds nuw i8, ptr %7, i64 60
  %18 = load i32, ptr %17, align 4, !tbaa !14
  %19 = getelementptr inbounds nuw i8, ptr %7, i64 80
  %20 = load i32, ptr %19, align 8, !tbaa !14
  %.not15.i = icmp eq i32 %18, %20
  br i1 %.not15.i, label %.preheader.i, label %is_planar_yuv.exit.thread

.preheader.i:                                     ; preds = %15
  %wide.trip.count.i = zext i8 %13 to i64
  br label %22

21:                                               ; preds = %29
  %indvars.iv.next.i = add nuw nsw i64 %indvars.iv.i, 1
  %exitcond.not.i = icmp eq i64 %indvars.iv.next.i, %wide.trip.count.i
  br i1 %exitcond.not.i, label %is_planar_yuv.exit, label %22, !llvm.loop !17

22:                                               ; preds = %21, %.preheader.i
  %indvars.iv.i = phi i64 [ 0, %.preheader.i ], [ %indvars.iv.next.i, %21 ]
  %23 = getelementptr inbounds nuw [4 x %struct.AVComponentDescriptor], ptr %16, i64 0, i64 %indvars.iv.i
  %24 = getelementptr inbounds nuw i8, ptr %23, i64 8
  %25 = load i32, ptr %24, align 4, !tbaa !19
  %.not16.i = icmp eq i32 %25, 0
  br i1 %.not16.i, label %26, label %is_planar_yuv.exit.thread

26:                                               ; preds = %22
  %27 = getelementptr inbounds nuw i8, ptr %23, i64 12
  %28 = load i32, ptr %27, align 4, !tbaa !20
  %.not17.i = icmp eq i32 %28, 0
  br i1 %.not17.i, label %29, label %is_planar_yuv.exit.thread

29:                                               ; preds = %26
  %30 = load i32, ptr %23, align 4, !tbaa !21
  %31 = zext i32 %30 to i64
  %.not18.i = icmp eq i64 %indvars.iv.i, %31
  br i1 %.not18.i, label %21, label %is_planar_yuv.exit.thread

is_planar_yuv.exit:                               ; preds = %21
  %32 = call i32 @ff_add_format(ptr noundef nonnull %4, i64 noundef %indvars.iv) #3
  %33 = icmp slt i32 %32, 0
  br i1 %33, label %.loopexit, label %is_planar_yuv.exit.thread

is_planar_yuv.exit.thread:                        ; preds = %29, %26, %22, %.lr.ph, %11, %15, %is_planar_yuv.exit
  %indvars.iv.next = add nuw nsw i64 %indvars.iv, 1
  %34 = trunc nuw i64 %indvars.iv.next to i32
  %35 = call ptr @av_pix_fmt_desc_get(i32 noundef %34) #3
  %.not = icmp eq ptr %35, null
  br i1 %.not, label %._crit_edge.loopexit, label %.lr.ph, !llvm.loop !22

._crit_edge.loopexit:                             ; preds = %is_planar_yuv.exit.thread
  %.pre = load ptr, ptr %4, align 8, !tbaa !4
  br label %._crit_edge

._crit_edge:                                      ; preds = %._crit_edge.loopexit, %3
  %36 = phi ptr [ %.pre, %._crit_edge.loopexit ], [ null, %3 ]
  %37 = call i32 @ff_set_common_formats2(ptr noundef %0, ptr noundef %1, ptr noundef %2, ptr noundef %36) #3
  br label %.loopexit

.loopexit:                                        ; preds = %is_planar_yuv.exit, %._crit_edge
  %.2 = phi i32 [ %37, %._crit_edge ], [ %32, %is_planar_yuv.exit ]
  call void @llvm.lifetime.end.p0(i64 8, ptr nonnull %4) #3
  ret i32 %.2
}